; Function Attrs: mustprogress nofree norecurse nounwind willreturn memory(argmem: readwrite) uwtable
define hidden void @_ZN3sls10smt_plugin16sls_phase_to_smtEv(ptr noundef nonnull align 8 captures(none) dereferenceable(3024) %0) local_unnamed_addr #16 align 2 personality ptr @__gxx_personality_v0 {
  %2 = getelementptr inbounds nuw i8, ptr %0, i64 2985
  %3 = load atomic i8, ptr %2 seq_cst, align 1
  %4 = trunc i8 %3 to i1
  br i1 %4, label %5, label %6

5:                                                ; preds = %1
  store atomic i8 0, ptr %2 seq_cst, align 1
  br label %6

6:                                                ; preds = %1, %5
  ret void
}